; Function Attrs: nounwind uwtable
define dso_local i64 @tsqueryin(ptr noundef readonly captures(none) %0) local_unnamed_addr #0 {
  %2 = getelementptr inbounds nuw i8, ptr %0, i64 32
  %3 = load i64, ptr %2, align 8
  %4 = inttoptr i64 %3 to ptr
  %5 = getelementptr inbounds nuw i8, ptr %0, i64 8
  %6 = load ptr, ptr %5, align 8
  %7 = tail call ptr @parse_tsquery(ptr noundef %4, ptr noundef nonnull @pushval_asis, i64 noundef 0, i32 noundef 0, ptr noundef %6)
  %8 = ptrtoint ptr %7 to i64
  ret i64 %8
}